target datalayout = "e-m:e-p270:32:32-p271:32:32-p272:64:64-i64:64-i128:128-f80:128-n8:16:32:64-S128"
target triple = "x86_64-pc-linux-gnu"

%struct.prte_oob_base_t = type { i32, i32, i32, i32, i32, %struct.pmix_list_t, i32, %struct.pmix_list_t, i32, i32, i8, ptr, ptr, ptr, ptr, i8, ptr, ptr, ptr, ptr, %struct.pmix_list_t, ptr, i32, %struct.pmix_list_t, %struct.pmix_thread_t, i8, %struct.timeval, [2 x i32], i32, i32, i32, i32, i32 }
%struct.pmix_list_t = type { %struct.pmix_object_t, %struct.pmix_list_item_t, i64 }
%struct.pmix_object_t = type { %union.pthread_mutex_t, ptr, i32, %struct.pmix_tma }
%union.pthread_mutex_t = type { %struct.__pthread_mutex_s }
%struct.__pthread_mutex_s = type { i32, i32, i32, i32, i32, i16, i16, %struct.__pthread_internal_list }
%struct.__pthread_internal_list = type { ptr, ptr }
%struct.pmix_tma = type { ptr, ptr, ptr, ptr, ptr, ptr, ptr, ptr }
%struct.pmix_list_item_t = type { %struct.pmix_object_t, ptr, ptr, i32 }
%struct.pmix_thread_t = type { %struct.pmix_object_t, ptr, ptr, i64 }
%struct.timeval = type { i64, i64 }
%struct.prte_process_info_t = type { %struct.pmix_proc, %struct.pmix_proc, ptr, %struct.pmix_proc, i32, i32, i32, ptr, ptr, i32, i8, ptr, i16, ptr, ptr, i8, ptr, i8 }
%struct.pmix_proc = type { [256 x i8], i32 }
%struct.pmix_output_desc_t = type { i8, i8, i32, i8, i32, ptr, ptr, i32, ptr, i32, i8, i8, i8, i8, ptr, i32, i32 }
%struct.event = type { %struct.event_callback, %union.anon.0, i32, ptr, %union.anon.2, i16, i16, %struct.timeval }
%struct.event_callback = type { %struct.anon, i16, i8, i8, %union.anon, ptr }
%struct.anon = type { ptr, ptr }
%union.anon = type { ptr }
%union.anon.0 = type { %struct.anon.1 }
%struct.anon.1 = type { ptr, ptr }
%union.anon.2 = type { %struct.anon.3 }
%struct.anon.3 = type { %struct.anon.4, %struct.timeval }
%struct.anon.4 = type { ptr, ptr }
%struct.prte_oob_tcp_peer_t = type { %struct.pmix_list_item_t, %struct.pmix_proc, ptr, i32, %struct.pmix_list_t, ptr, i32, i32, %struct.event, i8, %struct.event, i8, %struct.event, i8, %struct.pmix_list_t, ptr, ptr }
%struct.prte_oob_tcp_addr_t = type { %struct.pmix_list_item_t, %struct.sockaddr_storage, i32, i32, i32 }
%struct.sockaddr_storage = type { i16, [118 x i8], i64 }

@prte_oob_base = external global %struct.prte_oob_base_t, align 8
@prte_process_info = external global %struct.prte_process_info_t, align 8
@pmix_output_info = external global [0 x %struct.pmix_output_desc_t], align 8
@.str.66 = private unnamed_addr constant [38 x i8] c"%s-%s tcp_peer_connected on socket %d\00", align 1

; Function Attrs: inlinehint nounwind uwtable
define internal void @pmix_atomic_wmb() #2 {
  fence release
  ret void
}

; Function Attrs: inlinehint nounwind uwtable
define internal ptr @pmix_list_remove_first(ptr noundef %0) #2 {
  %2 = alloca ptr, align 8
  %3 = alloca ptr, align 8
  %4 = alloca ptr, align 8
  %5 = alloca i32, align 4
  store ptr %0, ptr %3, align 8, !tbaa !11
  call void @llvm.lifetime.start.p0(i64 8, ptr %4) #12
  %6 = load ptr, ptr %3, align 8, !tbaa !11
  %7 = getelementptr inbounds nuw %struct.pmix_list_t, ptr %6, i32 0, i32 2
  %8 = load volatile i64, ptr %7, align 8, !tbaa !121
  %9 = icmp eq i64 0, %8
  br i1 %9, label %10, label %11

10:                                               ; preds = %1
  store ptr null, ptr %2, align 8
  store i32 1, ptr %5, align 4
  br label %34

11:                                               ; preds = %1
  %12 = load ptr, ptr %3, align 8, !tbaa !11
  %13 = getelementptr inbounds nuw %struct.pmix_list_t, ptr %12, i32 0, i32 2
  %14 = load volatile i64, ptr %13, align 8, !tbaa !121
  %15 = add i64 %14, -1
  store volatile i64 %15, ptr %13, align 8, !tbaa !121
  %16 = load ptr, ptr %3, align 8, !tbaa !11
  %17 = getelementptr inbounds nuw %struct.pmix_list_t, ptr %16, i32 0, i32 1
  %18 = getelementptr inbounds nuw %struct.pmix_list_item_t, ptr %17, i32 0, i32 1
  %19 = load ptr, ptr %18, align 8, !tbaa !125
  store ptr %19, ptr %4, align 8, !tbaa !78
  %20 = load ptr, ptr %4, align 8, !tbaa !78
  %21 = getelementptr inbounds nuw %struct.pmix_list_item_t, ptr %20, i32 0, i32 2
  %22 = load volatile ptr, ptr %21, align 8, !tbaa !120
  %23 = load ptr, ptr %4, align 8, !tbaa !78
  %24 = getelementptr inbounds nuw %struct.pmix_list_item_t, ptr %23, i32 0, i32 1
  %25 = load volatile ptr, ptr %24, align 8, !tbaa !59
  %26 = getelementptr inbounds nuw %struct.pmix_list_item_t, ptr %25, i32 0, i32 2
  store volatile ptr %22, ptr %26, align 8, !tbaa !120
  %27 = load ptr, ptr %4, align 8, !tbaa !78
  %28 = getelementptr inbounds nuw %struct.pmix_list_item_t, ptr %27, i32 0, i32 1
  %29 = load volatile ptr, ptr %28, align 8, !tbaa !59
  %30 = load ptr, ptr %3, align 8, !tbaa !11
  %31 = getelementptr inbounds nuw %struct.pmix_list_t, ptr %30, i32 0, i32 1
  %32 = getelementptr inbounds nuw %struct.pmix_list_item_t, ptr %31, i32 0, i32 1
  store ptr %29, ptr %32, align 8, !tbaa !125
  %33 = load ptr, ptr %4, align 8, !tbaa !78
  store ptr %33, ptr %2, align 8
  store i32 1, ptr %5, align 4
  br label %34

34:                                               ; preds = %11, %10
  call void @llvm.lifetime.end.p0(i64 8, ptr %4) #12
  %35 = load ptr, ptr %2, align 8
  ret ptr %35
}

; Function Attrs: nounwind uwtable
define internal void @tcp_peer_connected(ptr noundef %0) #0 {
  %2 = alloca ptr, align 8
  store ptr %0, ptr %2, align 8, !tbaa !9
  %3 = load i32, ptr @prte_oob_base, align 8, !tbaa !64
  %4 = icmp sge i32 %3, 0
  br i1 %4, label %5, label %24

5:                                                ; preds = %1
  %6 = load i32, ptr @prte_oob_base, align 8, !tbaa !64
  %7 = icmp slt i32 %6, 64
  br i1 %7, label %8, label %24

8:                                                ; preds = %5
  %9 = load i32, ptr @prte_oob_base, align 8, !tbaa !64
  %10 = sext i32 %9 to i64
  %11 = getelementptr inbounds [0 x %struct.pmix_output_desc_t], ptr @pmix_output_info, i64 0, i64 %10
  %12 = getelementptr inbounds nuw %struct.pmix_output_desc_t, ptr %11, i32 0, i32 2
  %13 = load i32, ptr %12, align 4, !tbaa !34
  %14 = icmp sge i32 %13, 7
  br i1 %14, label %15, label %24

15:                                               ; preds = %8
  %16 = load i32, ptr @prte_oob_base, align 8, !tbaa !64
  %17 = call ptr @prte_util_print_name_args(ptr noundef @prte_process_info)
  %18 = load ptr, ptr %2, align 8, !tbaa !9
  %19 = getelementptr inbounds nuw %struct.prte_oob_tcp_peer_t, ptr %18, i32 0, i32 1
  %20 = call ptr @prte_util_print_name_args(ptr noundef %19)
  %21 = load ptr, ptr %2, align 8, !tbaa !9
  %22 = getelementptr inbounds nuw %struct.prte_oob_tcp_peer_t, ptr %21, i32 0, i32 3
  %23 = load i32, ptr %22, align 8, !tbaa !68
  call void (i32, ptr, ...) @pmix_output(i32 noundef %16, ptr noundef @.str.66, ptr noundef %17, ptr noundef %20, i32 noundef %23)
  br label %24

24:                                               ; preds = %15, %8, %5, %1
  %25 = load ptr, ptr %2, align 8, !tbaa !9
  %26 = getelementptr inbounds nuw %struct.prte_oob_tcp_peer_t, ptr %25, i32 0, i32 13
  %27 = load i8, ptr %26, align 8, !tbaa !139, !range !69, !noundef !70
  %28 = trunc i8 %27 to i1
  br i1 %28, label %29, label %35

29:                                               ; preds = %24
  %30 = load ptr, ptr %2, align 8, !tbaa !9
  %31 = getelementptr inbounds nuw %struct.prte_oob_tcp_peer_t, ptr %30, i32 0, i32 12
  %32 = call i32 @event_del(ptr noundef %31)
  %33 = load ptr, ptr %2, align 8, !tbaa !9
  %34 = getelementptr inbounds nuw %struct.prte_oob_tcp_peer_t, ptr %33, i32 0, i32 13
  store i8 0, ptr %34, align 8, !tbaa !139
  br label %35

35:                                               ; preds = %29, %24
  %36 = load ptr, ptr %2, align 8, !tbaa !9
  %37 = getelementptr inbounds nuw %struct.prte_oob_tcp_peer_t, ptr %36, i32 0, i32 6
  store i32 5, ptr %37, align 8, !tbaa !98
  %38 = load ptr, ptr %2, align 8, !tbaa !9
  %39 = getelementptr inbounds nuw %struct.prte_oob_tcp_peer_t, ptr %38, i32 0, i32 5
  %40 = load ptr, ptr %39, align 8, !tbaa !80
  %41 = icmp ne ptr null, %40
  br i1 %41, label %42, label %47

42:                                               ; preds = %35
  %43 = load ptr, ptr %2, align 8, !tbaa !9
  %44 = getelementptr inbounds nuw %struct.prte_oob_tcp_peer_t, ptr %43, i32 0, i32 5
  %45 = load ptr, ptr %44, align 8, !tbaa !80
  %46 = getelementptr inbounds nuw %struct.prte_oob_tcp_addr_t, ptr %45, i32 0, i32 2
  store i32 0, ptr %46, align 8, !tbaa !83
  br label %47

47:                                               ; preds = %42, %35
  %48 = load ptr, ptr %2, align 8, !tbaa !9
  %49 = getelementptr inbounds nuw %struct.prte_oob_tcp_peer_t, ptr %48, i32 0, i32 15
  %50 = load ptr, ptr %49, align 8, !tbaa !102
  %51 = icmp eq ptr null, %50
  br i1 %51, label %52, label %58

52:                                               ; preds = %47
  %53 = load ptr, ptr %2, align 8, !tbaa !9
  %54 = getelementptr inbounds nuw %struct.prte_oob_tcp_peer_t, ptr %53, i32 0, i32 14
  %55 = call ptr @pmix_list_remove_first(ptr noundef %54)
  %56 = load ptr, ptr %2, align 8, !tbaa !9
  %57 = getelementptr inbounds nuw %struct.prte_oob_tcp_peer_t, ptr %56, i32 0, i32 15
  store ptr %55, ptr %57, align 8, !tbaa !102
  br label %58

58:                                               ; preds = %52, %47
  %59 = load ptr, ptr %2, align 8, !tbaa !9
  %60 = getelementptr inbounds nuw %struct.prte_oob_tcp_peer_t, ptr %59, i32 0, i32 15
  %61 = load ptr, ptr %60, align 8, !tbaa !102
  %62 = icmp ne ptr null, %61
  br i1 %62, label %63, label %74

63:                                               ; preds = %58
  %64 = load ptr, ptr %2, align 8, !tbaa !9
  %65 = getelementptr inbounds nuw %struct.prte_oob_tcp_peer_t, ptr %64, i32 0, i32 9
  %66 = load i8, ptr %65, align 8, !tbaa !89, !range !69, !noundef !70
  %67 = trunc i8 %66 to i1
  br i1 %67, label %74, label %68

68:                                               ; preds = %63
  %69 = load ptr, ptr %2, align 8, !tbaa !9
  %70 = getelementptr inbounds nuw %struct.prte_oob_tcp_peer_t, ptr %69, i32 0, i32 9
  store i8 1, ptr %70, align 8, !tbaa !89
  call void @pmix_atomic_wmb()
  %71 = load ptr, ptr %2, align 8, !tbaa !9
  %72 = getelementptr inbounds nuw %struct.prte_oob_tcp_peer_t, ptr %71, i32 0, i32 8
  %73 = call i32 @event_add(ptr noundef %72, ptr noundef null)
  br label %74

74:                                               ; preds = %68, %63, %58
  ret void
}