; Function Attrs: nounwind uwtable
define internal fastcc void @tcp_peer_connected(ptr noundef %0) unnamed_addr #0 {
  %2 = load i32, ptr @prte_oob_base, align 8, !tbaa !60
  %or.cond = icmp ult i32 %2, 64
  br i1 %or.cond, label %3, label %14

3:                                                ; preds = %1
  %4 = zext nneg i32 %2 to i64
  %5 = getelementptr inbounds nuw [0 x %struct.pmix_output_desc_t], ptr @pmix_output_info, i64 0, i64 %4, i32 2
  %6 = load i32, ptr %5, align 4, !tbaa !32
  %7 = icmp sgt i32 %6, 6
  br i1 %7, label %8, label %14

8:                                                ; preds = %3
  %9 = tail call ptr @prte_util_print_name_args(ptr noundef nonnull @prte_process_info) #15
  %10 = getelementptr inbounds nuw i8, ptr %0, i64 144
  %11 = tail call ptr @prte_util_print_name_args(ptr noundef nonnull %10) #15
  %12 = getelementptr inbounds nuw i8, ptr %0, i64 416
  %13 = load i32, ptr %12, align 8, !tbaa !64
  tail call void (i32, ptr, ...) @pmix_output(i32 noundef %2, ptr noundef nonnull @.str.66, ptr noundef %9, ptr noundef %11, i32 noundef %13) #15
  br label %14

14:                                               ; preds = %8, %3, %1
  %15 = getelementptr inbounds nuw i8, ptr %0, i64 1112
  %16 = load i8, ptr %15, align 8, !tbaa !112, !range !85, !noundef !86
  %17 = trunc nuw i8 %16 to i1
  br i1 %17, label %18, label %21

18:                                               ; preds = %14
  %19 = getelementptr inbounds nuw i8, ptr %0, i64 984
  %20 = tail call i32 @event_del(ptr noundef nonnull %19) #15
  store i8 0, ptr %15, align 8, !tbaa !112
  br label %21

21:                                               ; preds = %18, %14
  %22 = getelementptr inbounds nuw i8, ptr %0, i64 704
  store i32 5, ptr %22, align 8, !tbaa !95
  %23 = getelementptr inbounds nuw i8, ptr %0, i64 696
  %24 = load ptr, ptr %23, align 8, !tbaa !76
  %.not = icmp eq ptr %24, null
  br i1 %.not, label %27, label %25

25:                                               ; preds = %21
  %26 = getelementptr inbounds nuw i8, ptr %24, i64 272
  store i32 0, ptr %26, align 8, !tbaa !79
  br label %27

27:                                               ; preds = %25, %21
  %28 = getelementptr inbounds nuw i8, ptr %0, i64 1392
  %29 = load ptr, ptr %28, align 8, !tbaa !113
  %30 = icmp eq ptr %29, null
  br i1 %30, label %31, label %.thread

31:                                               ; preds = %27
  %32 = getelementptr inbounds nuw i8, ptr %0, i64 1384
  %33 = load volatile i64, ptr %32, align 8, !tbaa !56
  %34 = icmp eq i64 %33, 0
  br i1 %34, label %.thread19, label %35

.thread19:                                        ; preds = %31
  store ptr null, ptr %28, align 8, !tbaa !113
  br label %52

35:                                               ; preds = %31
  %36 = load volatile i64, ptr %32, align 8, !tbaa !56
  %37 = add i64 %36, -1
  store volatile i64 %37, ptr %32, align 8, !tbaa !56
  %38 = getelementptr inbounds nuw i8, ptr %0, i64 1360
  %39 = load ptr, ptr %38, align 8, !tbaa !98
  %40 = getelementptr inbounds nuw i8, ptr %39, i64 128
  %41 = load volatile ptr, ptr %40, align 8, !tbaa !55
  %42 = getelementptr inbounds nuw i8, ptr %39, i64 120
  %43 = load volatile ptr, ptr %42, align 8, !tbaa !46
  %44 = getelementptr inbounds nuw i8, ptr %43, i64 128
  store volatile ptr %41, ptr %44, align 8, !tbaa !55
  %45 = load volatile ptr, ptr %42, align 8, !tbaa !46
  store ptr %45, ptr %38, align 8, !tbaa !98
  store ptr %39, ptr %28, align 8, !tbaa !113
  br label %.thread

.thread:                                          ; preds = %27, %35
  %46 = getelementptr inbounds nuw i8, ptr %0, i64 840
  %47 = load i8, ptr %46, align 8, !tbaa !87, !range !85, !noundef !86
  %48 = trunc nuw i8 %47 to i1
  br i1 %48, label %52, label %49

49:                                               ; preds = %.thread
  store i8 1, ptr %46, align 8, !tbaa !87
  fence release
  %50 = getelementptr inbounds nuw i8, ptr %0, i64 712
  %51 = tail call i32 @event_add(ptr noundef nonnull %50, ptr noundef null) #15
  br label %52

52:                                               ; preds = %.thread19, %49, %.thread
  ret void
}